; ModuleID = '14/778.c'
source_filename = "14/778.c"
target datalayout = "e-m:e-p270:32:32-p271:32:32-p272:64:64-i64:64-f80:128-n8:16:32:64-S128"
target triple = "x86_64-pc-linux-gnu"

@.str = private unnamed_addr constant [3 x i8] c"%d\00", align 1
@.str.1 = private unnamed_addr constant [7 x i8] c"%d%d%d\00", align 1
@.str.2 = private unnamed_addr constant [19 x i8] c"%d %d\0A%d %d\0A%d %d\0A\00", align 1

; Function Attrs: noinline nounwind uwtable
define dso_local i32 @main(i32 %0, i8** %1) #0 {
  %3 = alloca i32, align 4
  %4 = alloca i32, align 4
  %5 = alloca i8**, align 8
  %6 = alloca i32, align 4
  %7 = alloca i32, align 4
  %8 = alloca [100 x i32], align 16
  %9 = alloca [100 x i32], align 16
  %10 = alloca [100 x i32], align 16
  %11 = alloca [100 x i32], align 16
  %12 = alloca i32, align 4
  %13 = alloca i32, align 4
  %14 = alloca i32, align 4
  %15 = alloca i32, align 4
  %16 = alloca i32, align 4
  %17 = alloca i32, align 4
  store i32 0, i32* %3, align 4
  store i32 %0, i32* %4, align 4
  store i8** %1, i8*** %5, align 8
  store i32 0, i32* %12, align 4
  store i32 0, i32* %13, align 4
  store i32 0, i32* %14, align 4
  store i32 0, i32* %15, align 4
  store i32 0, i32* %16, align 4
  store i32 0, i32* %17, align 4
  %18 = call i32 (i8*, ...) @__isoc99_scanf(i8* getelementptr inbounds ([3 x i8], [3 x i8]* @.str, i64 0, i64 0), i32* %6)
  store i32 0, i32* %7, align 4
  br label %19

19:                                               ; preds = %46, %2
  %20 = load i32, i32* %7, align 4
  %21 = load i32, i32* %6, align 4
  %22 = icmp slt i32 %20, %21
  br i1 %22, label %23, label %49

23:                                               ; preds = %19
  %24 = load i32, i32* %7, align 4
  %25 = sext i32 %24 to i64
  %26 = getelementptr inbounds [100 x i32], [100 x i32]* %8, i64 0, i64 %25
  %27 = load i32, i32* %7, align 4
  %28 = sext i32 %27 to i64
  %29 = getelementptr inbounds [100 x i32], [100 x i32]* %9, i64 0, i64 %28
  %30 = load i32, i32* %7, align 4
  %31 = sext i32 %30 to i64
  %32 = getelementptr inbounds [100 x i32], [100 x i32]* %10, i64 0, i64 %31
  %33 = call i32 (i8*, ...) @__isoc99_scanf(i8* getelementptr inbounds ([7 x i8], [7 x i8]* @.str.1, i64 0, i64 0), i32* %26, i32* %29, i32* %32)
  %34 = load i32, i32* %7, align 4
  %35 = sext i32 %34 to i64
  %36 = getelementptr inbounds [100 x i32], [100 x i32]* %9, i64 0, i64 %35
  %37 = load i32, i32* %36, align 4
  %38 = load i32, i32* %7, align 4
  %39 = sext i32 %38 to i64
  %40 = getelementptr inbounds [100 x i32], [100 x i32]* %10, i64 0, i64 %39
  %41 = load i32, i32* %40, align 4
  %42 = add nsw i32 %37, %41
  %43 = load i32, i32* %7, align 4
  %44 = sext i32 %43 to i64
  %45 = getelementptr inbounds [100 x i32], [100 x i32]* %11, i64 0, i64 %44
  store i32 %42, i32* %45, align 4
  br label %46

46:                                               ; preds = %23
  %47 = load i32, i32* %7, align 4
  %48 = add nsw i32 %47, 1
  store i32 %48, i32* %7, align 4
  br label %19

49:                                               ; preds = %19
  store i32 0, i32* %7, align 4
  br label %50

50:                                               ; preds = %68, %49
  %51 = load i32, i32* %7, align 4
  %52 = load i32, i32* %6, align 4
  %53 = icmp slt i32 %51, %52
  br i1 %53, label %54, label %71

54:                                               ; preds = %50
  %55 = load i32, i32* %7, align 4
  %56 = sext i32 %55 to i64
  %57 = getelementptr inbounds [100 x i32], [100 x i32]* %11, i64 0, i64 %56
  %58 = load i32, i32* %57, align 4
  %59 = load i32, i32* %12, align 4
  %60 = icmp sgt i32 %58, %59
  br i1 %60, label %61, label %67

61:                                               ; preds = %54
  %62 = load i32, i32* %7, align 4
  %63 = sext i32 %62 to i64
  %64 = getelementptr inbounds [100 x i32], [100 x i32]* %11, i64 0, i64 %63
  %65 = load i32, i32* %64, align 4
  store i32 %65, i32* %12, align 4
  %66 = load i32, i32* %7, align 4
  store i32 %66, i32* %15, align 4
  br label %67

67:                                               ; preds = %61, %54
  br label %68

68:                                               ; preds = %67
  %69 = load i32, i32* %7, align 4
  %70 = add nsw i32 %69, 1
  store i32 %70, i32* %7, align 4
  br label %50

71:                                               ; preds = %50
  store i32 0, i32* %7, align 4
  br label %72

72:                                               ; preds = %101, %71
  %73 = load i32, i32* %7, align 4
  %74 = load i32, i32* %6, align 4
  %75 = icmp slt i32 %73, %74
  br i1 %75, label %76, label %104

76:                                               ; preds = %72
  %77 = load i32, i32* %7, align 4
  %78 = sext i32 %77 to i64
  %79 = getelementptr inbounds [100 x i32], [100 x i32]* %11, i64 0, i64 %78
  %80 = load i32, i32* %79, align 4
  %81 = load i32, i32* %13, align 4
  %82 = icmp sgt i32 %80, %81
  br i1 %82, label %83, label %100

83:                                               ; preds = %76
  %84 = load i32, i32* %7, align 4
  %85 = sext i32 %84 to i64
  %86 = getelementptr inbounds [100 x i32], [100 x i32]* %11, i64 0, i64 %85
  %87 = load i32, i32* %86, align 4
  %88 = load i32, i32* %12, align 4
  %89 = icmp sle i32 %87, %88
  br i1 %89, label %90, label %100

90:                                               ; preds = %83
  %91 = load i32, i32* %7, align 4
  %92 = load i32, i32* %15, align 4
  %93 = icmp ne i32 %91, %92
  br i1 %93, label %94, label %100

94:                                               ; preds = %90
  %95 = load i32, i32* %7, align 4
  %96 = sext i32 %95 to i64
  %97 = getelementptr inbounds [100 x i32], [100 x i32]* %11, i64 0, i64 %96
  %98 = load i32, i32* %97, align 4
  store i32 %98, i32* %13, align 4
  %99 = load i32, i32* %7, align 4
  store i32 %99, i32* %16, align 4
  br label %100

100:                                              ; preds = %94, %90, %83, %76
  br label %101

101:                                              ; preds = %100
  %102 = load i32, i32* %7, align 4
  %103 = add nsw i32 %102, 1
  store i32 %103, i32* %7, align 4
  br label %72

104:                                              ; preds = %72
  store i32 0, i32* %7, align 4
  br label %105

105:                                              ; preds = %138, %104
  %106 = load i32, i32* %7, align 4
  %107 = load i32, i32* %6, align 4
  %108 = icmp slt i32 %106, %107
  br i1 %108, label %109, label %141

109:                                              ; preds = %105
  %110 = load i32, i32* %7, align 4
  %111 = sext i32 %110 to i64
  %112 = getelementptr inbounds [100 x i32], [100 x i32]* %11, i64 0, i64 %111
  %113 = load i32, i32* %112, align 4
  %114 = load i32, i32* %14, align 4
  %115 = icmp sgt i32 %113, %114
  br i1 %115, label %116, label %137

116:                                              ; preds = %109
  %117 = load i32, i32* %7, align 4
  %118 = sext i32 %117 to i64
  %119 = getelementptr inbounds [100 x i32], [100 x i32]* %11, i64 0, i64 %118
  %120 = load i32, i32* %119, align 4
  %121 = load i32, i32* %13, align 4
  %122 = icmp sle i32 %120, %121
  br i1 %122, label %123, label %137

123:                                              ; preds = %116
  %124 = load i32, i32* %7, align 4
  %125 = load i32, i32* %15, align 4
  %126 = icmp ne i32 %124, %125
  br i1 %126, label %127, label %137

127:                                              ; preds = %123
  %128 = load i32, i32* %7, align 4
  %129 = load i32, i32* %16, align 4
  %130 = icmp ne i32 %128, %129
  br i1 %130, label %131, label %137

131:                                              ; preds = %127
  %132 = load i32, i32* %7, align 4
  %133 = sext i32 %132 to i64
  %134 = getelementptr inbounds [100 x i32], [100 x i32]* %11, i64 0, i64 %133
  %135 = load i32, i32* %134, align 4
  store i32 %135, i32* %14, align 4
  %136 = load i32, i32* %7, align 4
  store i32 %136, i32* %17, align 4
  br label %137

137:                                              ; preds = %131, %127, %123, %116, %109
  br label %138

138:                                              ; preds = %137
  %139 = load i32, i32* %7, align 4
  %140 = add nsw i32 %139, 1
  store i32 %140, i32* %7, align 4
  br label %105

141:                                              ; preds = %105
  %142 = load i32, i32* %15, align 4
  %143 = add nsw i32 %142, 1
  %144 = load i32, i32* %12, align 4
  %145 = load i32, i32* %16, align 4
  %146 = add nsw i32 %145, 1
  %147 = load i32, i32* %13, align 4
  %148 = load i32, i32* %17, align 4
  %149 = add nsw i32 %148, 1
  %150 = load i32, i32* %14, align 4
  %151 = call i32 (i8*, ...) @printf(i8* getelementptr inbounds ([19 x i8], [19 x i8]* @.str.2, i64 0, i64 0), i32 %143, i32 %144, i32 %146, i32 %147, i32 %149, i32 %150)
  ret i32 0
}

declare dso_local i32 @__isoc99_scanf(i8*, ...) #1

declare dso_local i32 @printf(i8*, ...) #1


!llvm.module.flags = !{!0}
!llvm.ident = !{!1}

!0 = !{i32 1, !"wchar_size", i32 4}
!1 = !{!"clang version 10.0.0-4ubuntu1 "}
